; ModuleID = '54/951.c'
source_filename = "54/951.c"
target datalayout = "e-m:e-p270:32:32-p271:32:32-p272:64:64-i64:64-f80:128-n8:16:32:64-S128"
target triple = "x86_64-pc-linux-gnu"

@.str = private unnamed_addr constant [5 x i8] c"%d%d\00", align 1
@.str.1 = private unnamed_addr constant [3 x i8] c"%d\00", align 1

; Function Attrs: noinline nounwind uwtable
define dso_local void @main() #0 {
  %1 = alloca i32, align 4
  %2 = alloca i32, align 4
  %3 = alloca i32, align 4
  %4 = call i32 (i8*, ...) @__isoc99_scanf(i8* getelementptr inbounds ([5 x i8], [5 x i8]* @.str, i64 0, i64 0), i32* %2, i32* %3)
  %5 = load i32, i32* %2, align 4
  %6 = icmp eq i32 %5, 1
  br i1 %6, label %7, label %11

7:                                                ; preds = %0
  %8 = load i32, i32* %3, align 4
  %9 = add nsw i32 %8, 1
  %10 = call i32 (i8*, ...) @printf(i8* getelementptr inbounds ([3 x i8], [3 x i8]* @.str.1, i64 0, i64 0), i32 %9)
  br label %30

11:                                               ; preds = %0
  %12 = load i32, i32* %2, align 4
  %13 = load i32, i32* %3, align 4
  %14 = add nsw i32 %12, %13
  store i32 %14, i32* %1, align 4
  br label %15

15:                                               ; preds = %26, %11
  %16 = load i32, i32* %2, align 4
  %17 = load i32, i32* %1, align 4
  %18 = load i32, i32* %2, align 4
  %19 = load i32, i32* %3, align 4
  %20 = call i32 @judge(i32 %16, i32 %17, i32 %18, i32 %19)
  %21 = icmp eq i32 %20, 1
  br i1 %21, label %22, label %23

22:                                               ; preds = %15
  br label %26

23:                                               ; preds = %15
  %24 = load i32, i32* %1, align 4
  %25 = call i32 (i8*, ...) @printf(i8* getelementptr inbounds ([3 x i8], [3 x i8]* @.str.1, i64 0, i64 0), i32 %24)
  br label %29

26:                                               ; preds = %22
  %27 = load i32, i32* %1, align 4
  %28 = add nsw i32 %27, 1
  store i32 %28, i32* %1, align 4
  br label %15

29:                                               ; preds = %23
  br label %30

30:                                               ; preds = %29, %7
  ret void
}

declare dso_local i32 @__isoc99_scanf(i8*, ...) #1

declare dso_local i32 @printf(i8*, ...) #1

; Function Attrs: noinline nounwind uwtable
define dso_local i32 @judge(i32 %0, i32 %1, i32 %2, i32 %3) #0 {
  %5 = alloca i32, align 4
  %6 = alloca i32, align 4
  %7 = alloca i32, align 4
  %8 = alloca i32, align 4
  %9 = alloca i32, align 4
  store i32 %0, i32* %5, align 4
  store i32 %1, i32* %6, align 4
  store i32 %2, i32* %7, align 4
  store i32 %3, i32* %8, align 4
  %10 = load i32, i32* %6, align 4
  %11 = icmp eq i32 %10, 0
  br i1 %11, label %12, label %13

12:                                               ; preds = %4
  store i32 1, i32* %9, align 4
  br label %45

13:                                               ; preds = %4
  %14 = load i32, i32* %5, align 4
  %15 = icmp eq i32 %14, 0
  br i1 %15, label %16, label %17

16:                                               ; preds = %13
  store i32 2, i32* %9, align 4
  br label %44

17:                                               ; preds = %13
  %18 = load i32, i32* %6, align 4
  %19 = load i32, i32* %8, align 4
  %20 = sub nsw i32 %18, %19
  %21 = load i32, i32* %7, align 4
  %22 = srem i32 %20, %21
  %23 = icmp ne i32 %22, 0
  br i1 %23, label %24, label %25

24:                                               ; preds = %17
  store i32 1, i32* %9, align 4
  br label %43

25:                                               ; preds = %17
  %26 = load i32, i32* %5, align 4
  %27 = sub nsw i32 %26, 1
  %28 = load i32, i32* %6, align 4
  %29 = load i32, i32* %8, align 4
  %30 = sub nsw i32 %28, %29
  %31 = load i32, i32* %7, align 4
  %32 = sub nsw i32 %31, 1
  %33 = mul nsw i32 %30, %32
  %34 = load i32, i32* %7, align 4
  %35 = sdiv i32 %33, %34
  %36 = load i32, i32* %7, align 4
  %37 = load i32, i32* %8, align 4
  %38 = call i32 @judge(i32 %27, i32 %35, i32 %36, i32 %37)
  %39 = icmp eq i32 %38, 1
  br i1 %39, label %40, label %41

40:                                               ; preds = %25
  store i32 1, i32* %9, align 4
  br label %42

41:                                               ; preds = %25
  store i32 2, i32* %9, align 4
  br label %42

42:                                               ; preds = %41, %40
  br label %43

43:                                               ; preds = %42, %24
  br label %44

44:                                               ; preds = %43, %16
  br label %45

45:                                               ; preds = %44, %12
  %46 = load i32, i32* %9, align 4
  ret i32 %46
}


!llvm.module.flags = !{!0}
!llvm.ident = !{!1}

!0 = !{i32 1, !"wchar_size", i32 4}
!1 = !{!"clang version 10.0.0-4ubuntu1 "}
