; ModuleID = 'source-C-CXX/53/951.c'
source_filename = "source-C-CXX/53/951.c"
target datalayout = "e-m:e-p270:32:32-p271:32:32-p272:64:64-i64:64-f80:128-n8:16:32:64-S128"
target triple = "x86_64-pc-linux-gnu"

@.str = private unnamed_addr constant [5 x i8] c"%d%d\00", align 1
@.str.1 = private unnamed_addr constant [3 x i8] c"%d\00", align 1

; Function Attrs: nofree nounwind sspstrong uwtable
define dso_local void @main() local_unnamed_addr #0 {
  %1 = alloca i32, align 4
  %2 = alloca i32, align 4
  %3 = bitcast i32* %1 to i8*
  call void @llvm.lifetime.start.p0i8(i64 4, i8* nonnull %3) #4
  %4 = bitcast i32* %2 to i8*
  call void @llvm.lifetime.start.p0i8(i64 4, i8* nonnull %4) #4
  %5 = call i32 (i8*, ...) @__isoc99_scanf(i8* getelementptr inbounds ([5 x i8], [5 x i8]* @.str, i64 0, i64 0), i32* nonnull %1, i32* nonnull %2)
  %6 = load i32, i32* %1, align 4, !tbaa !5
  %7 = icmp eq i32 %6, 1
  %8 = load i32, i32* %2, align 4, !tbaa !5
  br i1 %7, label %9, label %11

9:                                                ; preds = %0
  %10 = add nsw i32 %8, 1
  br label %18

11:                                               ; preds = %0
  %12 = add nsw i32 %8, %6
  br label %13

13:                                               ; preds = %13, %11
  %14 = phi i32 [ %12, %11 ], [ %17, %13 ]
  %15 = call i32 @judge(i32 %6, i32 %14, i32 %6, i32 %8)
  %16 = icmp eq i32 %15, 1
  %17 = add nsw i32 %14, 1
  br i1 %16, label %13, label %18

18:                                               ; preds = %13, %9
  %19 = phi i32 [ %10, %9 ], [ %14, %13 ]
  %20 = call i32 (i8*, ...) @printf(i8* nonnull dereferenceable(1) getelementptr inbounds ([3 x i8], [3 x i8]* @.str.1, i64 0, i64 0), i32 %19)
  call void @llvm.lifetime.end.p0i8(i64 4, i8* nonnull %4) #4
  call void @llvm.lifetime.end.p0i8(i64 4, i8* nonnull %3) #4
  ret void
}

; Function Attrs: argmemonly mustprogress nofree nosync nounwind willreturn
declare void @llvm.lifetime.start.p0i8(i64 immarg, i8* nocapture) #1

; Function Attrs: nofree nounwind
declare noundef i32 @__isoc99_scanf(i8* nocapture noundef readonly, ...) local_unnamed_addr #2

; Function Attrs: nofree nounwind
declare noundef i32 @printf(i8* nocapture noundef readonly, ...) local_unnamed_addr #2

; Function Attrs: nofree nosync nounwind readnone sspstrong uwtable
define dso_local i32 @judge(i32 %0, i32 %1, i32 %2, i32 %3) local_unnamed_addr #3 {
  %5 = icmp eq i32 %1, 0
  br i1 %5, label %12, label %6

6:                                                ; preds = %4
  %7 = icmp eq i32 %0, 0
  br i1 %7, label %12, label %8

8:                                                ; preds = %6
  %9 = sub nsw i32 %1, %3
  %10 = srem i32 %9, %2
  %11 = icmp eq i32 %10, 0
  br i1 %11, label %14, label %12

12:                                               ; preds = %4, %6, %8, %14
  %13 = phi i32 [ %21, %14 ], [ 1, %4 ], [ 2, %6 ], [ 1, %8 ]
  ret i32 %13

14:                                               ; preds = %8
  %15 = add nsw i32 %0, -1
  %16 = add nsw i32 %2, -1
  %17 = mul nsw i32 %9, %16
  %18 = sdiv i32 %17, %2
  %19 = tail call i32 @judge(i32 %15, i32 %18, i32 %2, i32 %3)
  %20 = icmp eq i32 %19, 1
  %21 = select i1 %20, i32 1, i32 2
  br label %12
}

; Function Attrs: argmemonly mustprogress nofree nosync nounwind willreturn
declare void @llvm.lifetime.end.p0i8(i64 immarg, i8* nocapture) #1


!llvm.module.flags = !{!0, !1, !2, !3}
!llvm.ident = !{!4}

!0 = !{i32 1, !"wchar_size", i32 4}
!1 = !{i32 7, !"PIC Level", i32 2}
!2 = !{i32 7, !"PIE Level", i32 2}
!3 = !{i32 7, !"uwtable", i32 1}
!4 = !{!"clang version 13.0.0"}
!5 = !{!6, !6, i64 0}
!6 = !{!"int", !7, i64 0}
!7 = !{!"omnipotent char", !8, i64 0}
!8 = !{!"Simple C/C++ TBAA"}
